target datalayout = "e-m:e-p270:32:32-p271:32:32-p272:64:64-i64:64-i128:128-f80:128-n8:16:32:64-S128"
target triple = "x86_64-pc-linux-gnu"

%struct.Expr = type { i32 }
%struct.ArrayCoerceExpr = type { %struct.Expr, ptr, ptr, i32, i32, i32, i32, i32 }
%struct.Node = type { i32 }

; Function Attrs: inlinehint nounwind willreturn memory(read) uwtable
define available_externally i32 @atoi(ptr noundef nonnull %0) #6 {
  %2 = alloca ptr, align 8
  store ptr %0, ptr %2, align 8
  %3 = load ptr, ptr %2, align 8
  %4 = call i64 @strtol(ptr noundef %3, ptr noundef null, i32 noundef 10) #9
  %5 = trunc i64 %4 to i32
  ret i32 %5
}

; Function Attrs: inlinehint nounwind uwtable
define internal ptr @newNode(i64 noundef %0, i32 noundef %1) #7 {
  %3 = alloca i64, align 8
  %4 = alloca i32, align 4
  %5 = alloca ptr, align 8
  store i64 %0, ptr %3, align 8
  store i32 %1, ptr %4, align 4
  call void @llvm.lifetime.start.p0(i64 8, ptr %5) #9
  %6 = load i64, ptr %3, align 8
  %7 = call ptr @palloc0(i64 noundef %6)
  store ptr %7, ptr %5, align 8
  %8 = load i32, ptr %4, align 4
  %9 = load ptr, ptr %5, align 8
  %10 = getelementptr inbounds nuw %struct.Node, ptr %9, i32 0, i32 0
  store i32 %8, ptr %10, align 4
  %11 = load ptr, ptr %5, align 8
  call void @llvm.lifetime.end.p0(i64 8, ptr %5) #9
  ret ptr %11
}

; Function Attrs: nounwind uwtable
define internal ptr @_readArrayCoerceExpr() #0 {
  %1 = alloca ptr, align 8
  %2 = alloca ptr, align 8
  %3 = alloca i32, align 4
  call void @llvm.lifetime.start.p0(i64 8, ptr %1) #9
  %4 = call ptr @newNode(i64 noundef 48, i32 noundef 29)
  store ptr %4, ptr %1, align 8
  call void @llvm.lifetime.start.p0(i64 8, ptr %2) #9
  call void @llvm.lifetime.start.p0(i64 4, ptr %3) #9
  %5 = call ptr @pg_strtok(ptr noundef %3)
  store ptr %5, ptr %2, align 8
  %6 = call ptr @nodeRead(ptr noundef null, i32 noundef 0)
  %7 = load ptr, ptr %1, align 8
  %8 = getelementptr inbounds nuw %struct.ArrayCoerceExpr, ptr %7, i32 0, i32 1
  store ptr %6, ptr %8, align 8
  %9 = call ptr @pg_strtok(ptr noundef %3)
  store ptr %9, ptr %2, align 8
  %10 = call ptr @nodeRead(ptr noundef null, i32 noundef 0)
  %11 = load ptr, ptr %1, align 8
  %12 = getelementptr inbounds nuw %struct.ArrayCoerceExpr, ptr %11, i32 0, i32 2
  store ptr %10, ptr %12, align 8
  %13 = call ptr @pg_strtok(ptr noundef %3)
  store ptr %13, ptr %2, align 8
  %14 = call ptr @pg_strtok(ptr noundef %3)
  store ptr %14, ptr %2, align 8
  %15 = load ptr, ptr %2, align 8
  %16 = call i64 @strtoul(ptr noundef %15, ptr noundef null, i32 noundef 10) #9
  %17 = trunc i64 %16 to i32
  %18 = load ptr, ptr %1, align 8
  %19 = getelementptr inbounds nuw %struct.ArrayCoerceExpr, ptr %18, i32 0, i32 3
  store i32 %17, ptr %19, align 8
  %20 = call ptr @pg_strtok(ptr noundef %3)
  store ptr %20, ptr %2, align 8
  %21 = call ptr @pg_strtok(ptr noundef %3)
  store ptr %21, ptr %2, align 8
  %22 = load ptr, ptr %2, align 8
  %23 = call i32 @atoi(ptr noundef %22) #11
  %24 = load ptr, ptr %1, align 8
  %25 = getelementptr inbounds nuw %struct.ArrayCoerceExpr, ptr %24, i32 0, i32 4
  store i32 %23, ptr %25, align 4
  %26 = call ptr @pg_strtok(ptr noundef %3)
  store ptr %26, ptr %2, align 8
  %27 = call ptr @pg_strtok(ptr noundef %3)
  store ptr %27, ptr %2, align 8
  %28 = load ptr, ptr %2, align 8
  %29 = call i64 @strtoul(ptr noundef %28, ptr noundef null, i32 noundef 10) #9
  %30 = trunc i64 %29 to i32
  %31 = load ptr, ptr %1, align 8
  %32 = getelementptr inbounds nuw %struct.ArrayCoerceExpr, ptr %31, i32 0, i32 5
  store i32 %30, ptr %32, align 8
  %33 = call ptr @pg_strtok(ptr noundef %3)
  store ptr %33, ptr %2, align 8
  %34 = call ptr @pg_strtok(ptr noundef %3)
  store ptr %34, ptr %2, align 8
  %35 = load ptr, ptr %2, align 8
  %36 = call i32 @atoi(ptr noundef %35) #11
  %37 = load ptr, ptr %1, align 8
  %38 = getelementptr inbounds nuw %struct.ArrayCoerceExpr, ptr %37, i32 0, i32 6
  store i32 %36, ptr %38, align 4
  %39 = call ptr @pg_strtok(ptr noundef %3)
  store ptr %39, ptr %2, align 8
  %40 = call ptr @pg_strtok(ptr noundef %3)
  store ptr %40, ptr %2, align 8
  %41 = load ptr, ptr %1, align 8
  %42 = getelementptr inbounds nuw %struct.ArrayCoerceExpr, ptr %41, i32 0, i32 7
  store i32 -1, ptr %42, align 8
  %43 = load ptr, ptr %1, align 8
  call void @llvm.lifetime.end.p0(i64 4, ptr %3) #9
  call void @llvm.lifetime.end.p0(i64 8, ptr %2) #9
  call void @llvm.lifetime.end.p0(i64 8, ptr %1) #9
  ret ptr %43
}